target datalayout = "e-m:e-p270:32:32-p271:32:32-p272:64:64-i64:64-i128:128-f80:128-n8:16:32:64-S128"
target triple = "x86_64-pc-linux-gnu"

@.str.6 = private unnamed_addr constant [3 x i8] c"%f\00", align 1

; Function Attrs: nounwind uwtable
define i32 @pmix20_bfrop_pack_double(ptr noundef %0, ptr noundef %1, ptr noundef %2, i32 noundef %3, i16 noundef zeroext %4) #0 {
  %6 = alloca i32, align 4
  %7 = alloca ptr, align 8
  %8 = alloca ptr, align 8
  %9 = alloca ptr, align 8
  %10 = alloca i32, align 4
  %11 = alloca i16, align 2
  %12 = alloca i32, align 4
  %13 = alloca i32, align 4
  %14 = alloca ptr, align 8
  %15 = alloca ptr, align 8
  %16 = alloca i32, align 4
  store ptr %0, ptr %7, align 8, !tbaa !11
  store ptr %1, ptr %8, align 8, !tbaa !3
  store ptr %2, ptr %9, align 8, !tbaa !3
  store i32 %3, ptr %10, align 4, !tbaa !7
  store i16 %4, ptr %11, align 2, !tbaa !9
  call void @llvm.lifetime.start.p0(i64 4, ptr %12) #9
  store i32 0, ptr %12, align 4, !tbaa !7
  call void @llvm.lifetime.start.p0(i64 4, ptr %13) #9
  call void @llvm.lifetime.start.p0(i64 8, ptr %14) #9
  %17 = load ptr, ptr %9, align 8, !tbaa !3
  store ptr %17, ptr %14, align 8, !tbaa !62
  call void @llvm.lifetime.start.p0(i64 8, ptr %15) #9
  store i32 0, ptr %13, align 4, !tbaa !7
  br label %18

18:                                               ; preds = %41, %5
  %19 = load i32, ptr %13, align 4, !tbaa !7
  %20 = load i32, ptr %10, align 4, !tbaa !7
  %21 = icmp slt i32 %19, %20
  br i1 %21, label %22, label %44

22:                                               ; preds = %18
  %23 = load ptr, ptr %14, align 8, !tbaa !62
  %24 = load i32, ptr %13, align 4, !tbaa !7
  %25 = sext i32 %24 to i64
  %26 = getelementptr inbounds double, ptr %23, i64 %25
  %27 = load double, ptr %26, align 8, !tbaa !64
  %28 = call i32 (ptr, ptr, ...) @asprintf(ptr noundef %15, ptr noundef @.str.6, double noundef %27) #9
  %29 = icmp sgt i32 0, %28
  br i1 %29, label %30, label %31

30:                                               ; preds = %22
  store i32 -32, ptr %6, align 4
  store i32 1, ptr %16, align 4
  br label %45

31:                                               ; preds = %22
  %32 = load ptr, ptr %7, align 8, !tbaa !11
  %33 = load ptr, ptr %8, align 8, !tbaa !3
  %34 = call i32 @pmix20_bfrop_pack_string(ptr noundef %32, ptr noundef %33, ptr noundef %15, i32 noundef 1, i16 noundef zeroext 3)
  store i32 %34, ptr %12, align 4, !tbaa !7
  %35 = icmp ne i32 0, %34
  br i1 %35, label %36, label %39

36:                                               ; preds = %31
  %37 = load ptr, ptr %15, align 8, !tbaa !31
  call void @free(ptr noundef %37) #9
  %38 = load i32, ptr %12, align 4, !tbaa !7
  store i32 %38, ptr %6, align 4
  store i32 1, ptr %16, align 4
  br label %45

39:                                               ; preds = %31
  %40 = load ptr, ptr %15, align 8, !tbaa !31
  call void @free(ptr noundef %40) #9
  br label %41

41:                                               ; preds = %39
  %42 = load i32, ptr %13, align 4, !tbaa !7
  %43 = add nsw i32 %42, 1
  store i32 %43, ptr %13, align 4, !tbaa !7
  br label %18, !llvm.loop !66

44:                                               ; preds = %18
  store i32 0, ptr %6, align 4
  store i32 1, ptr %16, align 4
  br label %45

45:                                               ; preds = %44, %36, %30
  call void @llvm.lifetime.end.p0(i64 8, ptr %15) #9
  call void @llvm.lifetime.end.p0(i64 8, ptr %14) #9
  call void @llvm.lifetime.end.p0(i64 4, ptr %13) #9
  call void @llvm.lifetime.end.p0(i64 4, ptr %12) #9
  %46 = load i32, ptr %6, align 4
  ret i32 %46
}