; Function Attrs: nounwind uwtable
define range(i32 -32, 1) i32 @pmix20_bfrop_pack_double(ptr noundef readnone captures(none) %0, ptr noundef %1, ptr noundef readonly captures(none) %2, i32 noundef %3, i16 noundef zeroext %4) local_unnamed_addr #0 {
  %6 = alloca ptr, align 8
  call void @llvm.lifetime.start.p0(i64 8, ptr nonnull %6) #8
  %7 = icmp sgt i32 %3, 0
  br i1 %7, label %.lr.ph.preheader, label %.loopexit

.lr.ph.preheader:                                 ; preds = %5
  %wide.trip.count = zext nneg i32 %3 to i64
  br label %.lr.ph

.lr.ph:                                           ; preds = %.lr.ph.preheader, %15
  %indvars.iv = phi i64 [ 0, %.lr.ph.preheader ], [ %indvars.iv.next, %15 ]
  %8 = getelementptr inbounds nuw double, ptr %2, i64 %indvars.iv
  %9 = load double, ptr %8, align 8, !tbaa !50
  %10 = call i32 (ptr, ptr, ...) @asprintf(ptr noundef nonnull %6, ptr noundef nonnull @.str.6, double noundef %9) #8
  %11 = icmp slt i32 %10, 0
  br i1 %11, label %.loopexit, label %12

12:                                               ; preds = %.lr.ph
  %13 = call i32 @pmix20_bfrop_pack_string(ptr poison, ptr noundef %1, ptr noundef nonnull %6, i32 noundef 1, i16 zeroext poison)
  %.not = icmp eq i32 %13, 0
  %14 = load ptr, ptr %6, align 8, !tbaa !45
  call void @free(ptr noundef %14) #8
  br i1 %.not, label %15, label %.loopexit

15:                                               ; preds = %12
  %indvars.iv.next = add nuw nsw i64 %indvars.iv, 1
  %exitcond.not = icmp eq i64 %indvars.iv.next, %wide.trip.count
  br i1 %exitcond.not, label %.loopexit, label %.lr.ph, !llvm.loop !52

.loopexit:                                        ; preds = %.lr.ph, %15, %12, %5
  %.0 = phi i32 [ 0, %5 ], [ -32, %.lr.ph ], [ 0, %15 ], [ %13, %12 ]
  call void @llvm.lifetime.end.p0(i64 8, ptr nonnull %6) #8
  ret i32 %.0
}